ccollections
OrderedDict
p1
((lp2
(lp3
S'eos'
p4
aI0
aa(lp5
S'UNK'
p6
aI1
aa(lp7
S'go'
p8
aI2
aa(lp9
S'pokemon'
p10
aI3
aa(lp11
S'basketball'
p12
aI4
aa(lp13
S'playing'
p14
aI5
aa(lp15
S'like'
p16
aI6
aa(lp17
S'i'
aI7
aa(lp18
S'dota2'
p19
aI8
aa(lp20
S'play'
p21
aI9
aa(lp22
S'us'
p23
aI10
aa(lp24
S'let'
p25
aI11
aatRp26
.