ccollections
OrderedDict
p1
((lp2
(lp3
S'eos'
p4
aI0
aa(lp5
S'UNK'
p6
aI1
aa(lp7
S'go'
p8
aI2
aa(lp9
S'pokemon'
p10
aI3
aa(lp11
S'basketball'
p12
aI4
aa(lp13
S'dota2'
p14
aI5
aa(lp15
S'play'
p16
aI6
aatRp17
.